; Function Attrs: nofree norecurse nosync nounwind memory(none) uwtable
define ptr @ossl_ec_pt_format_id2name(i32 noundef %0) local_unnamed_addr #3 {
  br label %4

2:                                                ; preds = %4
  %3 = add nuw nsw i64 %.067, 1
  %exitcond.not = icmp eq i64 %3, 3
  br i1 %exitcond.not, label %.loopexit, label %4, !llvm.loop !15

4:                                                ; preds = %1, %2
  %.067 = phi i64 [ 0, %1 ], [ %3, %2 ]
  %5 = getelementptr inbounds nuw [3 x %struct.ossl_item_st], ptr @format_nameid_map, i64 0, i64 %.067
  %6 = load i32, ptr %5, align 16, !tbaa !11
  %7 = icmp eq i32 %0, %6
  br i1 %7, label %8, label %2

8:                                                ; preds = %4
  %9 = getelementptr inbounds nuw i8, ptr %5, i64 8
  %10 = load ptr, ptr %9, align 8, !tbaa !5
  br label %.loopexit

.loopexit:                                        ; preds = %2, %8
  %.0 = phi ptr [ %10, %8 ], [ null, %2 ]
  ret ptr %.0
}